ccopy_reg
_reconstructor
p1
(cigraph.layout
Layout
p2
c__builtin__
object
p3
NtRp4
(dp5
S'_coords'
p6
(lp7
(lp8
F170.72039056620616
aF-226.11049731549923
aa(lp9
F-138.98964676864892
aF-394.38231002468098
aa(lp10
F-50.338167836061515
aF62.318777872762162
aa(lp11
F-208.04011935899996
aF-23.50235113594713
aa(lp12
F278.23622427359618
aF-27.713437710283369
aa(lp13
F-115.64519601863005
aF306.30853241923353
aa(lp14
F232.21262143786086
aF26.713968720223299
aa(lp15
F230.44352823045614
aF196.25537741039386
aa(lp16
F-219.72167019002001
aF-233.29256451454424
aa(lp17
F-79.660975023935961
aF-237.99354474200891
aa(lp18
F441.58405717200822
aF-20.82720531564436
aa(lp19
F-110.25929407354361
aF-340.94016625571965
aa(lp20
F219.71478281301412
aF-33.282125447084319
aa(lp21
F38.958005290700463
aF-91.687822435271727
aa(lp22
F-241.90065118607299
aF-62.992735060578951
aa(lp23
F-83.468766532221977
aF-80.395328103897896
aa(lp24
F-64.398549478316397
aF-233.37490127819851
aa(lp25
F-227.74410979066511
aF-254.98474056863802
aa(lp26
F-232.26526926617953
aF74.530997739590532
aa(lp27
F-265.7678853982178
aF-130.49956221133095
aa(lp28
F370.36763913724093
aF-14.588847232693936
aa(lp29
F502.07649071290393
aF19.68079195433592
aa(lp30
F-72.995488529812377
aF-23.863069751521632
aa(lp31
F-421.64496339019922
aF80.77313743416417
aa(lp32
F-251.03117418971701
aF-336.0263612118847
aa(lp33
F-305.43611702560338
aF-96.721018867818671
aa(lp34
F147.97262445106679
aF193.3948792302987
aa(lp35
F-338.77156044481438
aF-160.28835503890133
aa(lp36
F119.73225788081426
aF116.61698973617435
aa(lp37
F244.35742853288039
aF66.284287690076667
aa(lp38
F-29.541681602534762
aF322.30203159488991
aa(lp39
F-245.17785270586737
aF-350.69350732833465
aa(lp40
F-29.602415025708112
aF223.3470189708178
aa(lp41
F-134.92909377825546
aF272.43379073439428
aa(lp42
F-12.834833262120611
aF-307.17962424297036
aa(lp43
F0.75308843742785214
aF-54.583142311417824
aa(lp44
F375.10174041542894
aF-122.23455308453349
aa(lp45
F-40.967057132740123
aF-333.35848663129093
aa(lp46
F341.58424782335589
aF-75.777623581306358
aa(lp47
F-72.785007783146142
aF-306.87580337728144
aa(lp48
F15.815044775888673
aF362.88547931249951
aa(lp49
F-137.49653222067312
aF350.23184386703844
aa(lp50
F-382.5782355786061
aF118.61958756624432
aa(lp51
F158.72144723952388
aF38.521316043010664
aa(lp52
F70.688679107403971
aF-301.54135864079137
aa(lp53
F-216.34904667665546
aF276.20197136932035
aa(lp54
F261.81928239337179
aF36.47893707610114
aa(lp55
F89.368327244220836
aF280.7646915491336
aa(lp56
F-234.54238550954466
aF209.76399632728885
aa(lp57
F-55.62718038171672
aF-32.981540551769676
aa(lp58
F-26.034001525135938
aF115.99047860580077
aa(lp59
F53.934651213218991
aF-200.33654483775729
aa(lp60
F79.161875356190137
aF-68.47317907164954
aa(lp61
F-205.03252738016144
aF-310.72479663395814
aa(lp62
F-166.49038821024519
aF-252.09826799026919
aa(lp63
F522.04612431570069
aF-31.503718496174532
aa(lp64
F74.453907329361726
aF-350.13505926749264
aa(lp65
F-316.39288205397457
aF158.18568258631484
aa(lp66
F141.60763347874541
aF85.437477763532399
aa(lp67
F-179.82408692695438
aF11.784448439948752
aa(lp68
F-23.563019650692805
aF-142.65707609976872
aa(lp69
F231.76810240888534
aF-266.10352251936592
aa(lp70
F-208.57567756280031
aF-36.063825129782032
aa(lp71
F207.5344027124994
aF-96.188653890399706
aa(lp72
F-40.481046825862151
aF113.30569997890504
aa(lp73
F155.35740664684624
aF-323.80233730181448
aa(lp74
F-137.50819294673809
aF102.13240837036773
aa(lp75
F-78.379643405620669
aF179.3055279505121
aa(lp76
F-219.88110641648825
aF-291.32914464795817
aa(lp77
F-95.935933780469284
aF291.62715980547233
aa(lp78
F259.44998605660226
aF-164.16759906806345
aa(lp79
F-307.06447644196879
aF-51.126729845718927
aa(lp80
F-18.234972536267076
aF-101.56701442991809
aa(lp81
F178.46105379893035
aF-307.91003110381422
aa(lp82
F334.81701833167079
aF219.83077916487755
aa(lp83
F-398.83862209042138
aF109.48950674378857
aa(lp84
F233.9232323079051
aF291.85633264564473
aa(lp85
F337.44238508404686
aF-66.025066652748549
aa(lp86
F-48.957596139442174
aF314.38156597041905
aa(lp87
F38.396786751817025
aF176.93520056274008
aa(lp88
F3.5643392076733948
aF-275.61255774599204
aa(lp89
F-279.83430858264109
aF-169.94364453177491
aa(lp90
F282.62025258095218
aF-123.647988577478
aa(lp91
F205.78725470544936
aF296.36861936542135
aa(lp92
F-62.298609482909136
aF-247.27511731249757
aa(lp93
F316.3731083903491
aF228.44788198958517
aa(lp94
F-188.52093338723512
aF78.465653658115414
aa(lp95
F245.10060560382229
aF108.84096577905598
aa(lp96
F253.54457508878895
aF60.941181895475083
aa(lp97
F0.20620932282396895
aF-308.57268403314441
aa(lp98
F-312.70726540313905
aF-186.1129204104985
aa(lp99
F400.00387259338834
aF180.53914889271647
aa(lp100
F-56.105564865455456
aF-13.570877313078492
aa(lp101
F-184.35658019051036
aF90.272941894455116
aa(lp102
F-79.123256232166909
aF-101.2598593868565
aa(lp103
F-344.50834377580594
aF-203.81447401158633
aa(lp104
F405.91357797373291
aF188.40165873624903
aa(lp105
F377.59105144885979
aF133.61742398222421
aa(lp106
F-25.231787277419112
aF-93.942461697889101
aa(lp107
F-184.34734004851609
aF118.56445744456902
aa(lp108
F-237.93123506789797
aF-367.99198419602533
aa(lp109
F12.615548921577943
aF393.01331793694175
aa(lp110
F-33.994753904958657
aF-77.230167619955111
aa(lp111
F-80.800644858030907
aF-428.81952239430001
aa(lp112
F-422.85559305931838
aF132.11429022361762
aa(lp113
F29.247319767934865
aF-303.28951761352715
aa(lp114
F-139.12395889898579
aF-185.78013733918104
aa(lp115
F-382.72745295355207
aF44.140821950697585
aa(lp116
F75.515361267898811
aF93.060260905521801
aa(lp117
F209.32299024706595
aF-32.306672028822796
aa(lp118
F-140.18537089501334
aF-125.94403100146033
aa(lp119
F-117.01853185611641
aF130.02431559089919
aa(lp120
F-241.46878012939735
aF-214.95607397341405
aa(lp121
F251.23456926169311
aF48.506452480239517
aa(lp122
F-125.14617825618944
aF149.26472924437689
aa(lp123
F295.27599545702674
aF-109.99663830601754
aa(lp124
F-258.67624835636832
aF-249.95114505471844
aa(lp125
F310.82058873326957
aF-11.727953065807442
aa(lp126
F140.66754187565525
aF175.38823364867937
aa(lp127
F-96.948852927435766
aF-199.69930112017335
aa(lp128
F79.225453256101318
aF35.625981860527766
aa(lp129
F-287.12895198340817
aF-223.16432032671383
aa(lp130
F-412.71643730750418
aF68.157656800808084
aa(lp131
F-247.74759302275228
aF-291.55562789590789
aa(lp132
F28.661399416932511
aF324.56072806011332
aa(lp133
F216.32757697055885
aF208.80207325235133
aa(lp134
F-67.602253924089652
aF-428.91562204338481
aa(lp135
F-21.7946401802262
aF317.88056333727872
aa(lp136
F-277.30689631106179
aF-149.47095401636494
aa(lp137
F-205.16177815060766
aF241.74307049715435
aa(lp138
F-81.043736224195456
aF-2.7345028962098201
aa(lp139
F185.01990762930947
aF-163.98249633589793
aa(lp140
F-340.91404550800519
aF137.06686321817466
aa(lp141
F25.897898817807956
aF74.949392488964719
aa(lp142
F185.98836222178164
aF-246.72518961482632
aa(lp143
F-205.77341625138115
aF-65.689226747176505
aa(lp144
F-320.26102282363723
aF38.213356076708202
aa(lp145
F214.50616641885165
aF-238.70229244977619
aa(lp146
F-227.05135344206889
aF62.580565708612568
aa(lp147
F-266.1061696186319
aF-186.98377283021185
aa(lp148
F54.968855239346809
aF-323.15280104386386
aa(lp149
F253.92912558384134
aF9.0121384460616216
aa(lp150
F190.00951091875783
aF-42.12083351283875
aa(lp151
F242.5721175651241
aF167.13366658696563
aa(lp152
F150.58934481131587
aF-139.82993899726864
aa(lp153
F-408.82996234050751
aF85.43349477648853
aa(lp154
F142.86513980528511
aF43.183904582114373
aa(lp155
F86.297631008832866
aF247.13916519403452
aa(lp156
F75.360511935044215
aF20.468384078349828
aa(lp157
F-192.78358572968926
aF-292.81322400060469
aa(lp158
F-231.9094279565449
aF-266.94260026232388
aa(lp159
F-46.047292065522548
aF41.452166708154884
aa(lp160
F171.74106463827343
aF6.7081484146276296
aa(lp161
F213.26940889944547
aF31.837676291886346
aa(lp162
F-245.59224608971525
aF-266.03246118775905
aa(lp163
F-320.33837297878733
aF-174.16048194026939
aa(lp164
F12.742047926921643
aF-344.83064548389916
aa(lp165
F-124.20814324167767
aF-122.75640253355799
aa(lp166
F-158.68992489308229
aF336.65100103864927
aa(lp167
F-171.12276932789018
aF334.89538191702991
aa(lp168
F154.73450700383785
aF176.05460601718201
aa(lp169
F113.78540037263514
aF-251.79989292222996
aa(lp170
F-210.82650522349041
aF148.22773888126082
aa(lp171
F96.250155603108681
aF-264.24681454736657
aa(lp172
F414.06388298773601
aF165.67776448697811
aa(lp173
F-93.733143871296434
aF-406.95406078292342
aa(lp174
F-227.45606806559118
aF219.71967075503062
aa(lp175
F-3.1213698277758892
aF-135.65950253843951
aa(lp176
F229.06397626416455
aF155.47609080223984
aa(lp177
F-249.70415497674509
aF-75.803340617737817
aa(lp178
F237.7135187334404
aF-22.003755443875441
aa(lp179
F74.864956784565265
aF-131.57053723519959
aa(lp180
F505.67267334427538
aF-16.074424485812354
aa(lp181
F16.883848870311322
aF171.73407980483995
aa(lp182
F232.31112136636136
aF48.921683019357786
aa(lp183
F-144.26877849534674
aF-199.82818168466537
aa(lp184
F9.644814318302199
aF-296.40838573164353
aa(lp185
F501.33121767607764
aF-57.050452917285014
aa(lp186
F-343.299813994033
aF120.76001452709637
aa(lp187
F51.488368865245953
aF375.33065624895607
aa(lp188
F266.45926258889546
aF-105.19678501341785
aa(lp189
F70.174117404771891
aF232.76290995942779
aa(lp190
F320.31254296246806
aF-165.53019521566083
aa(lp191
F-49.056099871679066
aF-75.219856871772535
aa(lp192
F-171.7260573825281
aF106.13424505337109
aa(lp193
F235.91283075504106
aF-170.29357256100704
aa(lp194
F-13.814707052654668
aF202.47227640525284
aa(lp195
F-358.86410763570564
aF78.108152224179918
aa(lp196
F-21.817608907239915
aF302.46490999362709
aa(lp197
F34.421066158036012
aF-373.61252569290383
aa(lp198
F438.27392494156879
aF-39.12566251305342
aa(lp199
F109.80283539344894
aF231.87571880803526
aa(lp200
F459.61412471946539
aF51.626190605114942
aa(lp201
F187.57254200605342
aF-228.95294700009799
aa(lp202
F117.28679715708161
aF243.56757977486009
aa(lp203
F-56.916323269065636
aF-257.35875638967747
aa(lp204
F383.49587019807819
aF16.829815609358125
aa(lp205
F-182.27850764041091
aF174.16534765462532
aa(lp206
F242.86791418427038
aF-121.94969224141612
aa(lp207
F-124.69193755999279
aF-375.62672831575577
aa(lp208
F-68.553589355655987
aF-132.00118119142232
aa(lp209
F-57.395525307978708
aF126.59380281231698
aa(lp210
F-4.3807361104440234
aF-112.88046085225653
aa(lp211
F163.93461844334894
aF196.21014708324191
aa(lp212
F298.39784263611176
aF-164.97115656784362
aa(lp213
F-252.89162973641396
aF116.97089205773807
aa(lp214
F-201.28204149040553
aF77.239584439478662
aa(lp215
F-310.61162286921683
aF-164.62471725919883
aa(lp216
F192.07945422976215
aF-294.04816828455517
aa(lp217
F197.68871541699639
aF277.04839992869034
aa(lp218
F-266.6096203885611
aF131.72401279552244
aa(lp219
F274.02912561460494
aF-150.77844785109329
aa(lp220
F65.531521558140938
aF209.9020045315298
aa(lp221
F-155.69826342979877
aF352.97553267478975
aa(lp222
F504.97247912202079
aF2.1308713192320403
aa(lp223
F214.75167812095427
aF-53.657985011032736
aa(lp224
F-48.436581707976039
aF-344.10916510778964
aa(lp225
F205.59846919916882
aF143.41999982505155
aa(lp226
F-82.714055311123332
aF125.86805291844398
aa(lp227
F247.57576637141429
aF26.511818520830378
aa(lp228
F-223.90822620736151
aF102.04718176540338
aa(lp229
F157.65250219963747
aF-230.61507684931735
aa(lp230
F-206.13124163315109
aF-367.80697358384845
aa(lp231
F-70.347637161638787
aF-327.10787004989595
aa(lp232
F-211.14986967325623
aF227.52574292764041
aa(lp233
F537.79270598052733
aF2.6673720468983126
aa(lp234
F-52.660164509403721
aF50.451043267607268
aa(lp235
F241.80532384750296
aF76.672561578463899
aa(lp236
F-173.13872107316425
aF-271.37416247392935
aa(lp237
F103.10529032081783
aF-238.71388953390513
aa(lp238
F67.409064553068021
aF-30.931600343066666
aa(lp239
F187.94405013956316
aF-304.04277943160503
aa(lp240
F-133.867054627165
aF-375.83609485637277
aa(lp241
F18.691404445483514
aF108.14993564158371
aa(lp242
F-54.374416504119864
aF-323.17152859768987
aa(lp243
F315.13947486989906
aF-119.43466675778824
aa(lp244
F-74.627054990748817
aF-218.20514946089148
aa(lp245
F-191.3718213354415
aF-42.451312031825658
aa(lp246
F-41.96961443556021
aF-273.15962414089216
aa(lp247
F-274.26179262090795
aF-52.225438032448636
aa(lp248
F-125.69280099790605
aF132.47640802938591
aa(lp249
F31.7261101531723
aF-253.18871721429713
aa(lp250
F41.354193036620387
aF-301.8312050668207
aa(lp251
F-107.59012508049136
aF174.59751355883256
aa(lp252
F278.84359493372222
aF25.718011970277459
aa(lp253
F164.72943290522852
aF-214.21190162720993
aa(lp254
F145.6675469099884
aF-320.57767957190765
aa(lp255
F-215.27808722379831
aF127.78654874283264
aa(lp256
F-40.707823082995027
aF-101.35182514471454
aa(lp257
F-389.69344049135685
aF95.073007228788256
aa(lp258
F78.85403897192586
aF-237.75572752352679
aa(lp259
F219.74123618855003
aF-206.59029300419539
aa(lp260
F-276.72185093567089
aF-83.012327766567509
aa(lp261
F-202.70546255645908
aF-59.478548432275737
aa(lp262
F216.93010863169255
aF-5.3059915885383289
aa(lp263
F138.73129208400829
aF-309.58185009107393
aa(lp264
F-31.706028032735983
aF-284.82774322085271
aa(lp265
F-360.20917069508687
aF16.544089826224766
aa(lp266
F1.0364571875425095
aF157.37436953453479
aa(lp267
F-118.38524783337226
aF343.13301265809434
aa(lp268
F-175.7946799061487
aF302.50548989458883
aa(lp269
F-47.02069403342329
aF-65.114484362344214
aa(lp270
F-191.1800826568134
aF8.6030389537794534
aa(lp271
F49.397583910741432
aF30.310601759219985
aa(lp272
F-119.09282883388602
aF237.37050662912881
aa(lp273
F183.14730749831205
aF-208.78175127882628
aa(lp274
F24.409724605680072
aF-183.97259165907533
aa(lp275
F-281.93118244208614
aF-108.17118539451067
aa(lp276
F-118.43568206167038
aF58.763879842132461
aa(lp277
F193.47987002203982
aF-183.97377042885606
aa(lp278
F222.93663524945487
aF-194.13773598250299
aa(lp279
F-51.453036169942422
aF-95.048484626288257
aa(lp280
F-40.609365985538652
aF212.47066683352776
aa(lp281
F74.189807541813153
aF-216.13706762078311
aa(lp282
F-356.05135055764708
aF26.506797205036861
aa(lp283
F393.02055134490649
aF194.49346833044251
aa(lp284
F200.29152687232062
aF169.56958845888479
aa(lp285
F157.63651775697861
aF111.46167690688031
aa(lp286
F-14.815894305434359
aF343.4287154876522
aa(lp287
F-239.31442366175128
aF147.87959399478947
aa(lp288
F-47.873001168343833
aF267.17646626469605
aa(lp289
F135.1119339290658
aF130.7772525579355
aa(lp290
F272.2048908781141
aF-127.25901547986604
aa(lp291
F-131.64615344506038
aF7.4000201455673205
aa(lp292
F-135.54473093702109
aF-113.52987950855518
aa(lp293
F1.4633694573107274
aF327.09456254524292
aa(lp294
F220.78316502793626
aF14.590735806978985
aa(lp295
F-203.39692522333809
aF-12.033093541493866
aa(lp296
F-153.07421074599782
aF-168.63790251858796
aa(lp297
F-264.09492044321735
aF-144.51028538794935
aa(lp298
F236.27986443673453
aF41.301297028798288
aa(lp299
F-93.449036947627619
aF150.4844604770943
aa(lp300
F-12.669255523577206
aF-274.99958984233007
aa(lp301
F-62.663968258123759
aF-277.21024894129999
aa(lp302
F237.88920547014786
aF-87.673662065679309
aa(lp303
F192.61615243197349
aF-144.50271267345371
aa(lp304
F-186.62560662418255
aF57.431688519345762
aa(lp305
F29.893923480633234
aF-152.38999580555858
aa(lp306
F-2.2926140448314172
aF-375.42032055541489
aa(lp307
F-244.34019568398074
aF136.14098295504718
aa(lp308
F-86.26503778067827
aF-149.69069847481342
aa(lp309
F179.085352220153
aF-198.13771820741158
aa(lp310
F274.95658658275471
aF-89.891110920946289
aa(lp311
F256.40694439604948
aF-13.085048866144758
aa(lp312
F-5.3144173401392223
aF212.82940349778778
aa(lp313
F128.19563142859121
aF151.34732073202309
aa(lp314
F-248.01227604944964
aF-139.98015151377516
aa(lp315
F-164.44582626418907
aF195.46234871625845
aa(lp316
F35.697904427215271
aF275.20949479578098
aa(lp317
F-255.70407483894928
aF153.74280899206741
aa(lp318
F159.21433846167045
aF-302.48608098987097
aa(lp319
F70.464342600098306
aF242.9003791294306
aa(lp320
F119.39788550349728
aF209.95918837022788
aa(lp321
F117.59455880636968
aF20.719046951701323
aa(lp322
F-63.075851577709486
aF-89.33759557709827
aa(lp323
F223.75115519542786
aF69.851314379212084
aa(lp324
F-111.84729247938658
aF353.45161267996372
aa(lp325
F288.92989672578767
aF-139.66758884760105
aa(lp326
F11.491265227726116
aF271.24230598756492
aa(lp327
F-221.12388466170137
aF-15.929512067848751
aa(lp328
F16.225240189712157
aF-305.50186547312973
aa(lp329
F79.885227854849234
aF-264.2943182745588
aa(lp330
F-227.57448947055164
aF-321.94092162424806
aa(lp331
F-27.554297948708271
aF-68.381548820521047
aa(lp332
F5.7293254549326829
aF105.10949173188594
aa(lp333
F471.52687529766831
aF57.639231617912415
aa(lp334
F432.46700776426405
aF-29.75822869982078
aa(lp335
F-197.58093196508992
aF32.628931698736125
aa(lp336
F-106.06264899446673
aF226.96031050966596
aa(lp337
F4.9246862978517596
aF-94.424347202562885
aa(lp338
F111.39239471348455
aF42.025203202825345
aa(lp339
F154.33429734165625
aF31.134834697719533
aa(lp340
F222.95257959722113
aF41.440137915623751
aa(lp341
F114.0966913141599
aF33.199253055209041
aa(lp342
F49.212701193419278
aF235.43560081713025
aa(lp343
F-207.46507119304763
aF-205.15278530418718
aa(lp344
F-134.0933701236103
aF-8.8631522557467655
aa(lp345
F-82.379303717823419
aF286.01087793689902
aa(lp346
F258.99042805855311
aF-61.812971989341946
aa(lp347
F-309.66863354630647
aF-234.51952099720825
aa(lp348
F205.3004347702728
aF-179.81887231966328
aa(lp349
F-380.81919224319608
aF30.691148809963664
aa(lp350
F458.84888017088144
aF60.200634536621749
aa(lp351
F-255.55050717809664
aF-178.79428867690007
aa(lp352
F75.659598287930038
aF-290.80400919047588
aa(lp353
F71.174832903383631
aF63.727384326910553
aa(lp354
F-342.288251182419
aF104.20029446956646
aa(lp355
F-70.758195226909905
aF276.22403792963365
aa(lp356
F235.81322524695238
aF-182.19820785372386
aa(lp357
F351.25044015771857
aF190.00856067371626
aa(lp358
F345.14651604225855
aF56.784293363845791
aa(lp359
F9.283513758063167
aF312.211376446793
aa(lp360
F56.893027583294703
aF-71.469521110161963
aa(lp361
F205.99371595448986
aF63.03114797247791
aa(lp362
F-248.08458844641484
aF-274.08253263568844
aa(lp363
F27.911582529150667
aF263.18884263859394
aa(lp364
F-383.82645563003257
aF82.05179792538803
aa(lp365
F-161.85656983173391
aF62.285565287309296
aa(lp366
F108.95431338128317
aF-92.662747037137052
aa(lp367
F-178.85339411538931
aF-56.655915105941702
aa(lp368
F-153.8460435708397
aF28.789743822108406
aa(lp369
F-21.377475420036333
aF148.35920447805259
aa(lp370
F-30.439497808182626
aF-134.0756037724158
aa(lp371
F247.62878986705064
aF-32.29179407668812
aa(lp372
F-140.31046095182143
aF-243.06716893570436
aa(lp373
F-362.69266989612981
aF40.906931308168353
aa(lp374
F-72.368776228254063
aF95.65465677957782
aa(lp375
F295.35124284655006
aF-69.232026261758676
aa(lp376
F437.39503165697499
aF65.788869512303918
aa(lp377
F45.135950077311151
aF55.462378366037143
aa(lp378
F-223.95873770474319
aF153.26054935514165
aa(lp379
F-208.60457622257522
aF50.953137072911815
aa(lp380
F-31.401585003249437
aF-364.29069700001372
aa(lp381
F-298.80745790833117
aF-117.79498392449246
aa(lp382
F117.67058718256192
aF-94.381105102511199
aa(lp383
F-250.47077856848981
aF99.65239434687453
aa(lp384
F19.083890937948201
aF145.66189249335719
aa(lp385
F174.15356885802191
aF262.65774648261942
aa(lp386
F72.144374916136101
aF300.25417793935912
aa(lp387
F198.94440845572291
aF159.95277884983889
aa(lp388
F212.17013954875455
aF285.37368404229341
aa(lp389
F-177.8878390258939
aF-94.633634385822532
aa(lp390
F-29.099762006422566
aF-217.44654370269188
aa(lp391
F160.34187564969554
aF-88.321337648266123
aa(lp392
F-149.82952087498626
aF-143.20162656974253
aa(lp393
F171.5464387969335
aF-12.098025024526198
aa(lp394
F53.460325248280412
aF84.9604541111744
aa(lp395
F364.38066141543163
aF176.72344073740996
aa(lp396
F19.507440367359361
aF-196.39181500656355
aa(lp397
F-109.65568568322203
aF-295.30769326850537
aa(lp398
F479.95559637090435
aF-30.17007484318512
aa(lp399
F-85.21437620166094
aF108.63144098328463
aa(lp400
F166.21861867961667
aF-313.97764205275007
aa(lp401
F-291.94566356941738
aF85.751607573469869
aa(lp402
F-62.020244442781376
aF294.75770998566338
aa(lp403
F-283.74033017600982
aF152.5082506121027
aa(lp404
F93.447641225692479
aF19.203504870021785
aa(lp405
F202.42557016044807
aF24.726005048860163
aa(lp406
F99.904001864344963
aF-275.46124828789937
aa(lp407
F-304.55008509396885
aF132.33565236315022
aa(lp408
F-35.322902603407513
aF-252.62316540375537
aa(lp409
F-34.712273936426605
aF258.11610678228203
aa(lp410
F14.156095746247001
aF290.33777970213055
aa(lp411
F221.18525397433078
aF59.391900789375065
aa(lp412
F-149.01639555810294
aF203.83705395666644
aa(lp413
F-169.087218986138
aF-152.43257254433678
aa(lp414
F204.88533278639815
aF250.53865656769574
aa(lp415
F292.17843087692393
aF90.136758867827652
aa(lp416
F-231.94786543281674
aF-103.33109377984358
aa(lp417
F395.16834995472783
aF-78.589813810017674
aa(lp418
F60.978499203364578
aF167.13726811645947
aa(lp419
F-213.31279126303181
aF195.36843656478442
aa(lp420
F252.97335382466315
aF-37.110011211474649
aa(lp421
F372.06566299567572
aF5.9270867658842725
aa(lp422
F-339.45320289970243
aF64.245792057788307
aa(lp423
F64.631008854199337
aF-170.50059236761155
aa(lp424
F197.88919477496486
aF83.908989334232572
aa(lp425
F13.817224278084609
aF4.0086382097670272
aa(lp426
F-350.27288129753617
aF49.690479966503553
aa(lp427
F210.99032852688302
aF-142.17100710294142
aa(lp428
F-149.47730177249338
aF-44.793189778495865
aa(lp429
F-139.10616236315826
aF141.26416877701837
aa(lp430
F78.139769700491314
aF65.762968883790109
aa(lp431
F108.57381323118511
aF-309.92680403565674
aa(lp432
F-109.06404044718305
aF-305.4353089060848
aa(lp433
F-216.15602092585874
aF171.06185916759989
aa(lp434
F-47.715512822181502
aF170.0425735229235
aa(lp435
F22.274259922564259
aF-137.14432354903357
aa(lp436
F20.714670418708565
aF-269.78828010365896
aa(lp437
F-77.689449674084258
aF-199.65596548363436
aa(lp438
F135.40038057419176
aF294.20792005153032
aa(lp439
F-185.54451236264535
aF-28.197265938967661
aa(lp440
F110.36556879826081
aF-75.1631702780073
aa(lp441
F-105.02093583447038
aF-157.8321368592558
aa(lp442
F-319.472818370624
aF127.43564214076953
aa(lp443
F173.9296709622763
aF-104.10423267225987
aa(lp444
F72.148250223974813
aF-167.37841483675123
aa(lp445
F-185.48024075287532
aF42.854494929041223
aa(lp446
F114.94034316199908
aF-114.89808767585809
aa(lp447
F259.49834568105996
aF-150.5432755974181
aa(lp448
F160.99628706922141
aF-2.4302009392142554
aa(lp449
F433.93785864314833
aF36.098751310405305
aa(lp450
F-252.38936604606829
aF-226.63246576848505
aa(lp451
F165.15851084517303
aF-78.889352791699338
aa(lp452
F-276.04876894651858
aF-228.56638153284501
aa(lp453
F22.860897769612361
aF250.83513367540243
aa(lp454
F184.4297927232528
aF259.6820240982733
aa(lp455
F-186.50735785358037
aF-214.97885089885187
aa(lp456
F-114.78931291721777
aF-267.11805719681519
aa(lp457
F103.97744730422383
aF45.607022412214761
aa(lp458
F-286.9480320697628
aF22.567656732651631
aa(lp459
F-104.64650284806335
aF183.64934534385455
aa(lp460
F14.960119662408843
aF210.66660970260236
aa(lp461
F151.53279847907226
aF-94.474762502045664
aa(lp462
F-62.578652295065424
aF258.21369685705122
aa(lp463
F-319.73229494576134
aF-12.160737684327518
aa(lp464
F-63.402592130996915
aF242.00130374020264
aa(lp465
F68.828408658803781
aF151.33755143961559
aa(lp466
F226.2950872034117
aF-55.566180360840754
aa(lp467
F-123.65211258466088
aF41.354659989151166
aa(lp468
F185.38719571967124
aF127.97666905091484
aa(lp469
F-197.74086352723776
aF224.83361046827329
aa(lp470
F-259.92013940907083
aF139.26006970643721
aa(lp471
F-4.010748316675615
aF-191.2466320454343
aa(lp472
F-19.223621665223568
aF-267.37396542600959
aa(lp473
F339.27505744832723
aF79.25762557904055
aa(lp474
F92.307351037518558
aF-0.24711445847362895
aa(lp475
F-11.43467775484741
aF-317.26617543027453
aa(lp476
F79.200361366969233
aF133.63823696924206
aa(lp477
F55.981497664233885
aF-285.01917603806328
aa(lp478
F-9.7575853561019112
aF-325.94995981786508
aa(lp479
F-227.53925689752808
aF-198.52133432372409
aa(lp480
F120.31952688085575
aF-169.40968511940383
aa(lp481
F-46.48151331845213
aF-149.21161475069439
aa(lp482
F-34.545253995431487
aF-273.1260478583327
aa(lp483
F182.62743232535453
aF-189.72343204132846
aa(lp484
F-60.54597537804603
aF314.98850531023692
aa(lp485
F30.590621926400257
aF-84.795860761821046
aa(lp486
F125.21366302515735
aF-290.96653221844502
aa(lp487
F299.74148385140302
aF-100.19005131612501
aa(lp488
F199.86936607511964
aF97.631915958641613
aa(lp489
F189.1216242307575
aF142.71699519365302
aa(lp490
F-235.27222667026723
aF33.247816626350641
aa(lp491
F-140.97298856021555
aF274.13882908277765
aa(lp492
F-293.66499219581368
aF48.352615487014631
aa(lp493
F42.956433106239835
aF344.38528768145551
aa(lp494
F-258.4889963088163
aF-213.55556347311273
aa(lp495
F-145.07363521210439
aF315.13862262654493
aa(lp496
F-176.13045136599891
aF-165.45943019374997
aa(lp497
F268.85999361214431
aF173.7496086850656
aa(lp498
F321.67611304252733
aF158.42862255818363
aa(lp499
F-211.68195125932309
aF89.919746099568243
aa(lp500
F225.90722525228543
aF-79.577684282152674
aa(lp501
F-352.80421532516658
aF117.65523954091752
aa(lp502
F316.4449210201401
aF-73.19909016244776
aa(lp503
F-215.62359134461704
aF-165.72137336734968
aa(lp504
F-90.875098102305941
aF-383.0717067218319
aa(lp505
F81.295210456831711
aF205.63358519329122
aa(lp506
F251.57895223177343
aF128.31968653272179
aa(lp507
F-90.132396376650192
aF-220.06145981499824
aa(lp508
F-3.1713318379206226
aF-66.364559771096026
aa(lp509
F-134.45839125706956
aF-25.904545441910795
aa(lp510
F324.87959948535467
aF113.95490700502572
aa(lp511
F158.81190319745934
aF-264.90903823968165
aa(lp512
F125.36674303574034
aF-146.15828840838731
aa(lp513
F88.834581365613019
aF-226.78758255375965
aa(lp514
F-201.13761784320877
aF146.71184011502041
aa(lp515
F-130.53161938546904
aF-166.26308809687586
aa(lp516
F-243.29787591370609
aF-184.7518519525718
aa(lp517
F464.2802281331455
aF28.130592674702775
aa(lp518
F-151.27796198215947
aF-227.85737419364276
aa(lp519
F-60.347528918905553
aF9.1451365030226093
aa(lp520
F209.26504907343229
aF-192.70425449665512
aa(lp521
F-47.296860968828952
aF284.92027433370737
aa(lp522
F46.464044604963341
aF3.2175906750190819
aa(lp523
F-239.73570601720292
aF-175.71558361447049
aa(lp524
F316.36139560869941
aF-108.73865302395031
aa(lp525
F177.10224256634939
aF-46.363511893452625
aa(lp526
F1.9005058296300998
aF-179.92493499439914
aa(lp527
F-222.8241770764192
aF-347.77837361616997
aa(lp528
F-242.75675813671904
aF21.583818541953786
aa(lp529
F15.395343367179654
aF-357.0809735110779
aa(lp530
F-119.7698874857781
aF-330.7316746455607
aa(lp531
F-126.65230609055192
aF180.59957341498176
aa(lp532
F-87.03827798703783
aF218.67297959341087
aa(lp533
F-39.584558638971018
aF-50.540256148552821
aa(lp534
F-266.03835984040336
aF-95.941774034144856
aa(lp535
F-40.2380673512097
aF-28.200116010246052
aa(lp536
F-5.2472552603043381
aF283.126876725969
aa(lp537
F-254.84823478077951
aF-90.831445881963063
aa(lp538
F-36.191260794393742
aF18.67693851803314
aa(lp539
F47.002817042768747
aF283.90827121402123
aa(lp540
F-101.4137809361988
aF-208.53993312638133
aa(lp541
F340.755469381561
aF-106.04071989226125
aa(lp542
F39.594502383363896
aF-269.13501464411536
aa(lp543
F201.33409950791432
aF208.44171529856058
aa(lp544
F6.223967310273804
aF-260.18365307851354
aa(lp545
F179.02203188977242
aF-60.887866098608896
aa(lp546
F-0.35729818793452334
aF251.67338652515045
aa(lp547
F-212.8576475187611
aF114.10203412119027
aa(lp548
F-11.499541084869294
aF279.3291025548603
aa(lp549
F-146.23357712929831
aF21.633438500649095
aa(lp550
F-170.10118491391603
aF233.55883877370363
aa(lp551
F-351.02530248286268
aF31.468748801315833
aa(lp552
F-124.83493858379887
aF-153.13069564681558
aa(lp553
F104.06058100774746
aF63.928859998777781
aa(lp554
F-183.38490923888199
aF-260.02665842886631
aa(lp555
F95.104703083386823
aF183.39403550309078
aa(lp556
F128.06454937092059
aF202.11705268414599
aa(lp557
F76.021770333171546
aF-151.47530179775725
aa(lp558
F-83.979477829323059
aF-170.30317623998437
aa(lp559
F-26.328728507883689
aF-12.778300427637653
aa(lp560
F55.069721997058281
aF-45.734884596781157
aa(lp561
F-123.97111822415546
aF-260.57935062131867
aa(lp562
F-88.829826925462925
aF269.47863348318975
aa(lp563
F89.150559653097005
aF212.53324675782275
aa(lp564
F-364.19296800136914
aF53.974384410963367
aa(lp565
F104.66788830959119
aF59.056051125826372
aa(lp566
F265.82167386054095
aF-80.221643899461881
aa(lp567
F-237.71063803332433
aF-42.078858059434729
aa(lp568
F-45.816206825232435
aF-301.84615946257071
aa(lp569
F-286.63827505505532
aF-129.41062609588542
aa(lp570
F129.80344178396135
aF169.02770905981717
aa(lp571
F-9.0344217248122263
aF6.4087267280824749
aa(lp572
F99.9469416918934
aF-65.824121763847344
aa(lp573
F56.017913562446452
aF55.218004306062923
aa(lp574
F-4.0742092031822166
aF-256.77500133698442
aa(lp575
F-41.162859303509265
aF-36.276363262139995
aa(lp576
F-87.045358402338238
aF83.606157010145139
aa(lp577
F-29.672780407864572
aF195.85763388465784
aa(lp578
F-148.83388917474957
aF63.238423749308772
aa(lp579
F96.216527078318137
aF151.13816307837493
aa(lp580
F359.42524296512261
aF-101.70280448554821
aa(lp581
F-347.47147297333856
aF78.749870031337707
aa(lp582
F162.08078196305178
aF-174.57907823611521
aa(lp583
F143.55254497339993
aF234.26842122490851
aa(lp584
F195.00804442795535
aF73.686932233929653
aa(lp585
F-16.467686033046743
aF-186.95004585993283
aa(lp586
F-157.34366227251181
aF-86.966598087209348
aa(lp587
F-256.31815788732615
aF-158.12531844330877
aa(lp588
F-125.53673468754715
aF-27.297847966676269
aa(lp589
F-194.44857810570181
aF-55.713243774050646
aa(lp590
F-203.43463549416381
aF-226.64798221613711
aa(lp591
F-22.247376548609548
aF-196.33446713765062
aa(lp592
F-98.755827165198852
aF41.855792265564268
aa(lp593
F-24.116254252533274
aF247.17280626684649
aa(lp594
F144.87965132263318
aF66.016326107721994
aa(lp595
F257.18232619608557
aF-85.106633570488015
aa(lp596
F177.2182466814202
aF59.382276433801444
aa(lp597
F-238.68211772329366
aF-125.79954100561686
aa(lp598
F139.26118330894187
aF-90.826013590248735
aa(lp599
F-314.75349693630437
aF62.715685967038624
aa(lp600
F-129.54153492775757
aF113.5937844015268
aa(lp601
F16.770186680491456
aF-98.382708440444901
aa(lp602
F-184.0672479975824
aF-7.2290675972127962
aa(lp603
F-21.710691885188517
aF99.878855786773215
aa(lp604
F-161.91560010889208
aF177.92981247945079
aa(lp605
F149.02961977396845
aF-165.11514984778574
aa(lp606
F-173.50941001101057
aF-23.862598479368131
aa(lp607
F57.331141178284042
aF293.16211762996096
aa(lp608
F-120.08249375322083
aF323.39454930638402
aa(lp609
F84.936571869813577
aF-190.51176752349272
aa(lp610
F-138.39496388856568
aF-62.97260226313724
aa(lp611
F289.76156984417207
aF-158.79396910187802
aa(lp612
F-107.81027181819232
aF-253.83462019569873
aa(lp613
F-63.875704660604292
aF-198.89120335824171
aa(lp614
F208.54992601014237
aF94.535446143064348
aa(lp615
F-161.73798090980057
aF-227.28481726489915
aa(lp616
F-36.899863226766541
aF-296.014860830918
aa(lp617
F158.92394709352919
aF-119.98226994528591
aa(lp618
F339.70491757833418
aF132.31401944036847
aa(lp619
F-276.81284095695099
aF15.536142096293981
aa(lp620
F-120.60438171482988
aF-91.514128906751097
aa(lp621
F323.41972505073517
aF38.213908365700902
aa(lp622
F296.87962899001565
aF-132.80764332608598
aa(lp623
F-175.04439087939039
aF94.699986382813833
aa(lp624
F-171.00057417634494
aF-225.83422228808945
aa(lp625
F-211.08887447008945
aF162.00321772925795
aa(lp626
F266.26353867649163
aF-17.81776336290249
aa(lp627
F-1.2337670785272068
aF300.27324818745933
aa(lp628
F-293.3184044891625
aF-195.18327880889325
aa(lp629
F-21.805358066631069
aF286.02565419663756
aa(lp630
F-27.663731120122176
aF235.70206245990303
aa(lp631
F84.511625929659942
aF16.358979296127778
aa(lp632
F64.329073235079733
aF-48.63884441776306
aa(lp633
F57.057807004553091
aF7.1070446133002356
aa(lp634
F-26.849023284533093
aF-338.98094200084773
aa(lp635
F190.20069237276292
aF-14.787387912058653
aa(lp636
F-25.00418005018166
aF181.35954510209683
aa(lp637
F-47.45872580521624
aF-52.046643762735812
aa(lp638
F105.49103985807125
aF22.658819040429581
aa(lp639
F180.29500772443498
aF242.15736608217057
aa(lp640
F-12.542733901805581
aF236.34226826640671
aa(lp641
F-198.11900743435581
aF-132.68775214137648
aa(lp642
F-163.81668757909827
aF186.33520903438139
aa(lp643
F-129.62541194050516
aF42.186304745653175
aa(lp644
F86.586977903562428
aF-54.757126151472029
aa(lp645
F176.03032507310371
aF-221.02950791258607
aa(lp646
F-198.7192470121343
aF-301.80498368010126
aa(lp647
F-287.86459545995581
aF-89.272544585032762
aa(lp648
F73.380699909003866
aF181.80569950459383
aa(lp649
F162.70851472331319
aF269.72421087062571
aa(lp650
F-70.110376840575
aF-318.46937303377683
aa(lp651
F124.54777288022362
aF48.202883632900729
aa(lp652
F21.073718337150908
aF12.595814598822509
aa(lp653
F90.776068771793021
aF146.3221904674399
aa(lp654
F207.72309396329948
aF226.09144942920804
aa(lp655
F-69.636882577770407
aF253.99621076273755
aa(lp656
F-62.79576683021935
aF-179.58793633465856
aa(lp657
F-60.29084962154883
aF93.545870137030818
aa(lp658
F233.34599480220734
aF-97.267751298492556
aa(lp659
F-3.3593917015842343
aF236.98876776523591
aa(lp660
F-117.24174332339071
aF-52.668026704451798
aa(lp661
F-111.62262324246858
aF121.17105182426933
aa(lp662
F-32.393689313802916
aF59.646546576451598
aa(lp663
F-58.14445507057831
aF-375.98786924670213
aa(lp664
F-173.22440839975803
aF210.91973913298045
aa(lp665
F84.850842208187387
aF-182.39966974827715
aa(lp666
F-250.40646558962743
aF42.480961339525436
aa(lp667
F49.815349803489511
aF-135.11670144984194
aa(lp668
F332.5731416205644
aF189.14440966830495
aa(lp669
F-157.13707197177578
aF-5.2038048119990972
aa(lp670
F-197.1644147621146
aF-255.89537702493263
aa(lp671
F-218.88828295888183
aF-70.783120043590117
aa(lp672
F83.237472514308124
aF-27.598233312777054
aa(lp673
F48.149898286291517
aF-257.75117227792487
aa(lp674
F177.48176596926896
aF39.354066863279485
aa(lp675
F-193.04456232210279
aF-145.4882922250284
aa(lp676
F52.995428984364587
aF45.653633919533135
aa(lp677
F-218.4742145766551
aF-185.12300363108878
aa(lp678
F-108.4547118734598
aF-8.6895859441064065
aa(lp679
F281.72789039664571
aF110.74997920549299
aa(lp680
F65.93120340108743
aF8.7527056052458025
aa(lp681
F-84.85159159518841
aF-305.52687951331416
aa(lp682
F165.01728933808494
aF-159.73162677404358
aa(lp683
F-105.80332372910016
aF74.022232487563485
aa(lp684
F138.32874978134308
aF-252.4357738226818
aa(lp685
F-227.58501529092271
aF-143.0106390082033
aa(lp686
F156.22318673588936
aF-241.2865667074305
aa(lp687
F-177.21286521197871
aF-145.2724658274133
aa(lp688
F22.943113408118442
aF278.48133922055581
aa(lp689
F145.21720345372526
aF185.35690517763774
aa(lp690
F-301.04287424131002
aF109.85918533301715
aa(lp691
F-124.73287774347689
aF92.804311700069917
aa(lp692
F54.730253097761285
aF-151.85659536942848
aa(lp693
F213.73775179800052
aF160.46037898764683
aa(lp694
F-93.615398435748389
aF303.42395238365032
aa(lp695
F100.02382236948711
aF-220.13588710351303
aa(lp696
F97.996834943786595
aF-109.66792153236638
aa(lp697
F-146.35412760641228
aF-289.87190518705819
aa(lp698
F257.35321052957005
aF-141.52018381509549
aa(lp699
F-173.83404324557384
aF-257.06519800076092
aa(lp700
F121.88209934105117
aF82.518611704797095
aa(lp701
F-73.78660234860358
aF-92.821860274025255
aa(lp702
F-54.026058151623239
aF96.895277066042681
aa(lp703
F211.90110360801245
aF188.77564433463115
aa(lp704
F-21.192518563187292
aF272.48078308631966
aa(lp705
F-152.37351069931648
aF-67.362700491261563
aa(lp706
F468.87337385214909
aF2.0588840671111197
aa(lp707
F-197.54551089553212
aF188.99377993705843
aa(lp708
F-38.383474428451656
aF-310.18661306041685
aa(lp709
F-162.05658263126134
aF79.186862949831166
aa(lp710
F-286.42715888976693
aF-152.47835909862545
aa(lp711
F-50.637013410295118
aF296.51921673084195
aa(lp712
F97.739517478469551
aF-144.58785988530229
aa(lp713
F224.97488928397786
aF-133.48211418039912
aa(lp714
F-89.40722783934595
aF33.207024264124456
aa(lp715
F-214.9930895390458
aF-109.0108180470893
aa(lp716
F50.937859784241894
aF-219.07967164107626
aa(lp717
F-43.613270919605469
aF-208.25715787651521
aa(lp718
F-247.0848223842828
aF83.590438460700511
aa(lp719
F162.32264331043615
aF-193.73159931886281
aa(lp720
F188.1747895596244
aF6.8455778430739853
aa(lp721
F97.898695476148177
aF207.45056624804971
aa(lp722
F-51.165830751129761
aF234.43529179096518
aa(lp723
F392.03316158780018
aF151.21857699379314
aa(lp724
F6.4646603498816759
aF228.8557523955796
aa(lp725
F169.29059124989166
aF-198.01510523265839
aa(lp726
F-51.656790280186115
aF31.558960425708797
aa(lp727
F366.06470794802073
aF120.45324767575208
aa(lp728
F67.048980998863527
aF-220.37795653436552
aa(lp729
F-150.22160307614482
aF152.08302396986173
aa(lp730
F-153.58086475729928
aF144.52354866330623
aa(lp731
F-147.02841044871184
aF-306.54963922686591
aa(lp732
F82.220908481605477
aF55.236310226554252
aa(lp733
F-249.82782803183659
aF24.52631958508395
aa(lp734
F216.95247230318475
aF140.88660602633587
aa(lp735
F86.874133733597958
aF168.0081407871665
aa(lp736
F67.345366934636303
aF35.331806725177515
aa(lp737
F-133.2134167639226
aF267.63551442751185
aa(lp738
F11.149121558208883
aF133.99208076114692
aa(lp739
F-65.896534485735089
aF-294.01313537751668
aa(lp740
F125.23632730945641
aF-160.77214541916575
aa(lp741
F209.74609893685175
aF-68.729296599988757
aa(lp742
F182.61718130030346
aF189.51653578510812
aa(lp743
F-151.23902140563379
aF-343.17761482911567
aa(lp744
F23.153070346735287
aF197.71993409838674
aa(lp745
F120.10106401982554
aF-23.366208049885564
aa(lp746
F228.65743830790825
aF-72.254811598888253
aa(lp747
F-0.35484826901345401
aF-82.297406706742649
aa(lp748
F-297.05622864714786
aF11.566758379195141
aa(lp749
F-140.53853284735621
aF-15.735568150987561
aa(lp750
F-320.92209674946969
aF82.355052799367527
aa(lp751
F-336.44264640765141
aF31.181413828584873
aa(lp752
F39.067831544357141
aF-153.68377018742768
aa(lp753
F-165.36180065033744
aF87.322800939087784
aa(lp754
F154.26420401990288
aF159.77014875226214
aa(lp755
F123.2382554754097
aF178.88908043614859
aa(lp756
F-151.32930073260169
aF-316.24846310694176
aa(lp757
F-11.745775086757536
aF-238.73921133152234
aa(lp758
F120.65915657770081
aF-185.20479774308004
aa(lp759
F226.82690488288037
aF-107.80159406344805
aa(lp760
F160.74762661999887
aF-25.557161443611211
aa(lp761
F39.740018616030589
aF17.75138396832288
aa(lp762
F-187.501693485072
aF-99.589724463618921
aa(lp763
F-298.80039556957439
aF-139.46157963163958
aa(lp764
F324.51897122690684
aF150.24842979857161
aa(lp765
F-146.9779881505921
aF246.48760613918122
aa(lp766
F15.052320442844207
aF62.096309478234289
aa(lp767
F161.09369232181098
aF-142.62875828336428
aa(lp768
F64.791571369275786
aF129.90198596801821
aa(lp769
F31.438400124206872
aF-236.12453344943282
aa(lp770
F63.335919070677797
aF-209.1646804112041
aa(lp771
F88.03453874608924
aF-261.54503937837569
aa(lp772
F-27.548246968397901
aF229.12902455726211
aa(lp773
F-12.49599327510451
aF-148.72595127531719
aa(lp774
F103.52441602315909
aF-195.25030685964569
aa(lp775
F4.1209717654942892
aF-6.536528365507861
aa(lp776
F-237.01807511526638
aF96.884747580718511
aa(lp777
F-110.19601507998982
aF95.736298384290023
aa(lp778
F66.388754948312297
aF109.51507287074647
aa(lp779
F-44.24636725258874
aF174.95932688619936
aa(lp780
F-173.74152468711935
aF-107.28596321136602
aa(lp781
F139.73200863236687
aF-147.50033083100547
aa(lp782
F-25.112056466408216
aF218.73539102242043
aa(lp783
F337.32381657574643
aF181.25903678173918
aa(lp784
F160.43379565970994
aF248.39202454994549
aa(lp785
F18.70612882603335
aF267.48964019600243
aa(lp786
F-305.19761346122465
aF86.742614060850386
aa(lp787
F-168.84468732150185
aF-339.65184591321474
aa(lp788
F-181.06352871179126
aF-207.52819511565096
aa(lp789
F171.86493937911811
aF171.69071382031959
aa(lp790
F-202.09444558454223
aF-141.89686506849105
aa(lp791
F-179.58307660197823
aF-271.97450259130005
aa(lp792
F172.78923851818175
aF90.282439650028195
aa(lp793
F211.56754840562144
aF-114.06127772412199
aa(lp794
F164.38600593722191
aF72.379454760406702
aa(lp795
F-8.270001710136766
aF-187.63865981912642
aa(lp796
F-161.09381914441616
aF-55.784459917084753
aa(lp797
F51.659437814795112
aF219.46888930700578
aa(lp798
F-120.74520261263446
aF20.928998304407418
aa(lp799
F-165.44755150901165
aF128.75263620418107
aa(lp800
F-40.826834878866158
aF8.8516267365922197
aa(lp801
F181.1248067919143
aF-70.372812358268447
aa(lp802
F-181.98030576675313
aF-227.45852128274996
aa(lp803
F-4.6770557611603341
aF1.4272852728324765
aa(lp804
F-151.90623914740172
aF-72.456602292439158
aa(lp805
F56.355775449242429
aF20.764202683711588
aa(lp806
F-148.02329142447431
aF-59.665080779859835
aa(lp807
F144.42689892533701
aF-101.00163629720127
aa(lp808
F268.33554100793134
aF-54.551562861474508
aa(lp809
F47.238845083668664
aF-26.044468229286039
aa(lp810
F402.82978116786472
aF-9.3446480864176156
aa(lp811
F174.15521606458438
aF-6.4733484931995759
aa(lp812
F3.2342163000290323
aF219.28452338129583
aa(lp813
F-79.075690302595135
aF-318.89612273511693
aa(lp814
F-247.38191194676003
aF-196.86521943196158
aa(lp815
F-139.12384206293581
aF-160.56127150937891
aa(lp816
F-110.62000759018747
aF-66.41343649640811
aa(lp817
F244.00707518095788
aF-46.711857612818037
aa(lp818
F-0.042669081333962827
aF13.184842978660487
aa(lp819
F-183.41317207682428
aF-243.99066737396228
aa(lp820
F-87.954372304247386
aF18.147212690169845
aa(lp821
F282.18735935132736
aF-106.254633160493
aa(lp822
F-167.24148575823344
aF-71.179455819347965
aa(lp823
F156.42360888275994
aF-40.14667422582874
aa(lp824
F-138.8666286162906
aF89.515413495644523
aa(lp825
F-163.55815942568611
aF-146.67628376394663
aa(lp826
F119.33677091261262
aF-153.36555368924127
aa(lp827
F-133.01488181704937
aF164.5506564036674
aa(lp828
F158.2814482371212
aF-183.29038090130143
aa(lp829
F-156.38612316325361
aF69.018116045305931
aa(lp830
F86.276510900736682
aF185.09481638550446
aa(lp831
F6.6333319462296148
aF-114.02938126629539
aa(lp832
F-136.04614816873072
aF-276.44464502511261
aa(lp833
F9.5483106140595204
aF165.8373417379799
aa(lp834
F53.737453112013782
aF118.21336031234993
aa(lp835
F-124.31887839862482
aF219.38046508708038
aa(lp836
F-147.15790877653234
aF-85.08984585703999
aa(lp837
F61.394539066995122
aF-147.90252767070589
aa(lp838
F109.02003225857206
aF160.78926139203378
aa(lp839
F-13.856358503237086
aF-25.318444887656728
aa(lp840
F-114.02782556777429
aF41.037353055514352
aa(lp841
F-99.313359647965058
aF-218.42502502153107
aa(lp842
F52.75354323240223
aF-4.6296516327119344
aa(lp843
F112.63426271642697
aF111.6863056234271
aa(lp844
F-74.0643596403321
aF60.032866504232821
aa(lp845
F-27.310782147876083
aF-237.47604532794642
aa(lp846
F-148.62902865093898
aF115.86391109566945
aa(lp847
F-130.07933355483019
aF53.300109198759159
aa(lp848
F120.58700556071933
aF107.82339287909855
aa(lp849
F87.269769417858555
aF33.67287624587356
aa(lp850
F175.4500256902646
aF128.68172797954009
aa(lp851
F112.09242207965744
aF138.13029365916748
aa(lp852
F35.448399747877055
aF250.81058079313931
aa(lp853
F-270.38670271215864
aF49.058267102763004
aa(lp854
F113.6590227217303
aF-239.09160320162894
aa(lp855
F146.66216398755103
aF4.8329278040954717
aa(lp856
F-9.5973201921696472
aF75.186565809654638
aa(lp857
F-126.26420993741607
aF-187.25852495223901
aa(lp858
F242.68257054680686
aF-107.73511034302844
aa(lp859
F-83.753108893985257
aF251.82996172311766
aa(lp860
F146.70710343449377
aF138.18930248970858
aa(lp861
F-172.16094726309413
aF140.88227193146307
aa(lp862
F-205.33239612410947
aF-124.37909921997081
aa(lp863
F-158.14024611364465
aF116.90745936424788
aa(lp864
F-143.63725268240739
aF153.43131780205303
aa(lp865
F88.171719886799806
aF-199.89961309199836
aa(lp866
F-316.98768184213822
aF52.803496344511082
aa(lp867
F183.72426535573473
aF-3.556230801864857
aa(lp868
F-62.220330002404538
aF-43.646384247931515
aa(lp869
F-281.15399684843311
aF70.707683626615477
aa(lp870
F128.4764199632763
aF-133.42931606199446
aa(lp871
F7.5368314378038246
aF37.221351890108423
aa(lp872
F28.543063719753359
aF139.49060997214983
aa(lp873
F177.50466076868818
aF-116.30970879541356
aa(lp874
F99.927292171435667
aF-172.74422003813251
aa(lp875
F110.62262037989761
aF71.369674381428069
aa(lp876
F20.028844780635328
aF-37.868065718448108
aa(lp877
F132.97472458509628
aF-24.759366690591762
aa(lp878
F129.21749188625111
aF186.42973814790437
aa(lp879
F-289.56185061909093
aF72.186234493917894
aa(lp880
F236.6589920781966
aF-61.595357367110374
aa(lp881
F206.25620281540941
aF-121.07176399217548
aa(lp882
F-60.439780238247415
aF-272.16473944563876
aa(lp883
F31.063756088767335
aF-52.181427424981294
aa(lp884
F-171.97703017007501
aF-115.68752207645967
aa(lp885
F160.79192157442932
aF19.241304021218493
aa(lp886
F124.19934425275564
aF-249.61286137664092
aa(lp887
F41.344356034215885
aF154.05171631343185
aa(lp888
F38.418026540620779
aF109.3960552882095
aa(lp889
F83.571008891943308
aF145.19702694409477
aa(lp890
F108.20686224474555
aF-7.1606315407307974
aa(lp891
F-138.79800017674708
aF-145.90197084021344
aa(lp892
F-162.93327861892499
aF-173.30910676629114
aa(lp893
F-130.58364656771585
aF-65.906417444285367
aa(lp894
F119.40761240050006
aF-222.8971914133177
aa(lp895
F-182.6171412198895
aF-117.80925286249818
aa(lp896
F-24.755556883192607
aF1.9433441721438236
aa(lp897
F155.52151405589063
aF-150.97390345702047
aa(lp898
F-40.337487452788494
aF-191.82558529549428
aa(lp899
F-108.05521233168825
aF239.02330453477845
aa(lp900
F18.996388681276468
aF70.834278815291611
aa(lp901
F-98.272365865651793
aF271.65935131580869
aa(lp902
F-97.624091966641359
aF49.865572568140109
aa(lp903
F150.85414938913604
aF-212.13967086055075
aa(lp904
F114.55693808715803
aF-31.671446794085195
aa(lp905
F-100.74792313033142
aF-25.395673581885621
aa(lp906
F-18.294647594053139
aF36.218681774353747
aa(lp907
F-38.344926041787765
aF181.66779408007426
aa(lp908
F70.428174219081399
aF-98.591360056791075
aa(lp909
F-185.47735884180588
aF-133.07733880995028
aa(lp910
F116.54939696187107
aF-199.73182963697795
aa(lp911
F61.178284572396251
aF-28.87863937701265
aa(lp912
F58.659045697908077
aF191.82232525601728
aa(lp913
F-2.1169632552456381
aF-235.54100416878157
aa(lp914
F-153.92895917693792
aF-243.79213769572286
aa(lp915
F130.28534375434165
aF108.84940980541116
aa(lp916
F193.11768950180394
aF-31.842682354846545
aa(lp917
F121.38775010239642
aF-0.19366601451008941
aa(lp918
F-21.404156697364186
aF-16.533382950620101
aa(lp919
F89.525515027209636
aF-176.32602648605189
aa(lp920
F-273.20844743539936
aF56.432411469818213
aa(lp921
F163.65543378436956
aF-49.048121172200716
aa(lp922
F-151.91846614106228
aF-135.82641924609476
aa(lp923
F-95.341457543874441
aF-50.344314951088791
aa(lp924
F-75.939385416307687
aF222.60846204677867
aa(lp925
F-279.42621341389201
aF43.054573671919783
aa(lp926
F106.06524851247242
aF167.92502307228219
aa(lp927
F-9.8561035721119854
aF175.6327784189001
aa(lp928
F-201.99412427381
aF-110.02956552058508
aa(lp929
F192.12382615008465
aF-64.300112854319423
aa(lp930
F-102.16395174217232
aF64.850260695149785
aa(lp931
F-43.929565187182753
aF234.21923087334673
aa(lp932
F126.2678633422275
aF38.734651054281045
aa(lp933
F-201.93690444601046
aF-95.724366774267082
aa(lp934
F-22.974545949969936
aF47.151937804761268
aa(lp935
F-102.25494939309216
aF142.59512551415065
aa(lp936
F84.604086177362021
aF-36.787456277701565
aa(lp937
F49.089757130192837
aF160.54152581990473
aa(lp938
F-3.910769201407355
aF34.019427176717336
aa(lp939
F-117.73027799690685
aF-75.672441358580343
aa(lp940
F165.53219628139755
aF-56.248975307489339
aa(lp941
F163.29901922162395
aF136.69079878334898
aa(lp942
F-139.53364712096658
aF124.39022532848765
aa(lp943
F-11.295790430258922
aF66.894962209865994
aa(lp944
F84.554865812381635
aF152.22375006723584
aa(lp945
F46.087810812109602
aF142.8487617087128
aa(lp946
F-277.4545711703737
aF87.273912270947463
aa(lp947
F-8.2632944272054445
aF-50.537806093894289
aa(lp948
F145.28010886296718
aF145.923071689046
aa(lp949
F22.596892808054946
aF-54.780960368988467
aa(lp950
F-98.208750883468355
aF-42.195331585771591
aa(lp951
F131.55076871078796
aF54.185484029292667
aa(lp952
F28.759290598582201
aF18.138077284890631
aa(lp953
F-138.9628383668439
aF130.78156294657097
aa(lp954
F-0.034118522885959401
aF-35.162414136884735
aa(lp955
F15.250802382284146
aF-213.39827800173387
aa(lp956
F120.93214721514045
aF-54.027962849947194
aa(lp957
F56.113481178871716
aF-19.583924548216093
aa(lp958
F-126.19492253985013
aF141.08743465326287
aa(lp959
F100.23782405162035
aF113.83475497804547
aa(lp960
F109.91916916709856
aF-162.58883029526501
aa(lp961
F101.13243527739402
aF-58.602286283482442
aa(lp962
F25.509861260811658
aF25.727433451595783
aa(lp963
F21.191317291606502
aF-214.82023043838666
aa(lp964
F129.80966268332881
aF-10.576283529914713
aa(lp965
F158.88867576406216
aF78.714965017743339
aa(lp966
F14.96843285912794
aF-23.776355370490553
aa(lp967
F-111.83084131785438
aF30.82682449216464
aa(lp968
F178.34621353792932
aF103.91831036700992
aa(lp969
F-120.77337382467111
aF-44.651511535922744
aa(lp970
F31.920476457985433
aF-214.56467812763324
aa(lp971
F18.077790362865663
aF37.447870373547509
aa(lp972
F6.9474915309016056
aF49.057341192744943
aa(lp973
F45.641768568797787
aF64.88895200489182
aa(lp974
F11.081111370355435
aF-204.7279647418739
aa(lp975
F199.40982748406898
aF-57.538151029617005
aa(lp976
F123.93327000636427
aF-45.070508272440598
aa(lp977
F107.16456499663583
aF-30.646431536487608
aa(lp978
F173.8343541184064
aF146.61494648450139
aa(lp979
F195.61323105509879
aF-95.749665731749928
aa(lp980
F-165.26138172636607
aF149.88150531022364
aa(lp981
F-217.67700430447931
aF-118.35385117107795
aa(lp982
F30.642697485630325
aF-186.72548233318992
aa(lp983
F142.89903228978619
aF-177.81094741161058
aa(lp984
F-118.05579870646211
aF-26.017440175022475
aa(lp985
F-89.16788121373574
aF60.954173181890482
aa(lp986
F35.721106464639561
aF-66.130706673620509
aa(lp987
F138.7851581959263
aF-13.614349801000097
aa(lp988
F-185.89310474999252
aF-113.49947443905882
aa(lp989
F172.03262976394598
aF42.332153650371204
aa(lp990
F171.84951124567317
aF21.6261322897547
aa(lp991
F-17.83170345179018
aF-39.212477538185283
aa(lp992
F132.84389507949496
aF-121.53394560936901
aa(lp993
F-16.12862783131088
aF190.2001664330204
aa(lp994
F20.155391270543547
aF-28.729221906248952
aa(lp995
F-12.453844867230604
aF-55.275065211610567
aa(lp996
F-98.815877463811333
aF23.686965213063061
aa(lp997
F71.392293886002747
aF-33.336987435541971
aa(lp998
F151.72849542305516
aF16.678482458653829
aa(lp999
F-105.26838159719361
aF-26.480636573919725
aa(lp1000
F-107.40631259503954
aF47.244519446564567
aa(lp1001
F18.520994994235124
aF-18.817425662719284
aa(lp1002
F134.95760293336022
aF-47.19745471631915
aa(lp1003
F-68.030302631054766
aF202.4931758005483
aa(lp1004
F-93.091753756420545
aF68.065796836114686
aa(lp1005
F-18.605933517373817
aF-29.983210596081602
aa(lp1006
F182.09297330617949
aF-93.02269204432244
aa(lp1007
F117.49278728932005
aF-5.6338298012901635
aasS'_dim'
p1008
I2
sb.